; Function Attrs: mustprogress uwtable
define hidden void @_ZN4lean12is_enum_typeERKNS_11environmentERKNS_4exprE(ptr dead_on_unwind noalias writable writeonly sret(%"class.lean::optional") align 4 captures(none) %0, ptr noundef nonnull align 8 dereferenceable(8) %1, ptr noundef nonnull align 8 dereferenceable(8) %2) local_unnamed_addr #0 {
  %4 = tail call noundef nonnull align 8 dereferenceable(8) ptr @_ZN4lean10get_app_fnERKNS_4exprE(ptr noundef nonnull align 8 dereferenceable(8) %2)
  %5 = load ptr, ptr %4, align 8, !tbaa !3
  %6 = getelementptr i8, ptr %5, i64 4
  %.val.i.i.i.i.i = load i32, ptr %6, align 4
  %.mask.i.i = and i32 %.val.i.i.i.i.i, -16777216
  %7 = icmp eq i32 %.mask.i.i, 67108864
  br i1 %7, label %9, label %8

8:                                                ; preds = %3
  store i8 0, ptr %0, align 4, !tbaa !8
  br label %11

9:                                                ; preds = %3
  %10 = getelementptr inbounds nuw i8, ptr %5, i64 8
  tail call void @_ZN4lean12is_enum_typeERKNS_11environmentERKNS_4nameE(ptr dead_on_unwind writable sret(%"class.lean::optional") align 4 %0, ptr noundef nonnull align 8 dereferenceable(8) %1, ptr noundef nonnull align 8 dereferenceable(8) %10)
  br label %11

11:                                               ; preds = %9, %8
  ret void
}